target datalayout = "e-m:e-p270:32:32-p271:32:32-p272:64:64-i64:64-i128:128-f80:128-n8:16:32:64-S128"
target triple = "x86_64-pc-linux-gnu"

; Function Attrs: nounwind uwtable
define internal double @violet_filter(double noundef %0, ptr noundef %1) #1 {
  %3 = alloca double, align 8
  %4 = alloca ptr, align 8
  %5 = alloca double, align 8
  store double %0, ptr %3, align 8, !tbaa !44
  store ptr %1, ptr %4, align 8, !tbaa !42
  call void @llvm.lifetime.start.p0(i64 8, ptr %5) #7
  %6 = load double, ptr %3, align 8, !tbaa !44
  %7 = load ptr, ptr %4, align 8, !tbaa !42
  %8 = getelementptr inbounds double, ptr %7, i64 0
  %9 = load double, ptr %8, align 8, !tbaa !44
  %10 = fneg nsz double %9
  %11 = call nsz double @llvm.fmuladd.f64(double 2.000000e-02, double %6, double %10)
  %12 = fdiv nsz double %11, 1.020000e+00
  store double %12, ptr %5, align 8, !tbaa !44
  %13 = load double, ptr %5, align 8, !tbaa !44
  %14 = load ptr, ptr %4, align 8, !tbaa !42
  %15 = getelementptr inbounds double, ptr %14, i64 0
  store double %13, ptr %15, align 8, !tbaa !44
  %16 = load double, ptr %5, align 8, !tbaa !44
  %17 = fmul nsz double %16, 3.500000e+00
  call void @llvm.lifetime.end.p0(i64 8, ptr %5) #7
  ret double %17
}