; Function Attrs: mustprogress nofree norecurse nosync nounwind willreturn memory(argmem: readwrite) uwtable
define internal double @violet_filter(double noundef %0, ptr noundef captures(none) %1) #6 {
  %3 = load double, ptr %1, align 8, !tbaa !37
  %4 = fneg nsz double %3
  %5 = tail call nsz double @llvm.fmuladd.f64(double %0, double 2.000000e-02, double %4)
  %6 = fdiv nsz double %5, 1.020000e+00
  store double %6, ptr %1, align 8, !tbaa !37
  %7 = fmul nsz double %6, 3.500000e+00
  ret double %7
}